; Function Attrs: mustprogress nofree nounwind willreturn memory(argmem: readwrite) uwtable
define hidden void @luaO_chunkid(ptr noundef %0, ptr noundef readonly captures(none) %1, i64 noundef %2) local_unnamed_addr #12 {
  %4 = load i8, ptr %1, align 1, !tbaa !7
  switch i8 %4, label %20 [
    i8 61, label %5
    i8 64, label %10
  ]

5:                                                ; preds = %3
  %6 = getelementptr inbounds nuw i8, ptr %1, i64 1
  %7 = tail call ptr @strncpy(ptr noundef %0, ptr noundef nonnull %6, i64 noundef %2) #16
  %8 = getelementptr i8, ptr %0, i64 %2
  %9 = getelementptr i8, ptr %8, i64 -1
  store i8 0, ptr %9, align 1, !tbaa !7
  br label %30

10:                                               ; preds = %3
  %11 = getelementptr inbounds nuw i8, ptr %1, i64 1
  %12 = add i64 %2, -8
  %13 = tail call i64 @strlen(ptr noundef nonnull dereferenceable(1) %11) #18
  store i8 0, ptr %0, align 1
  %14 = icmp ugt i64 %13, %12
  br i1 %14, label %15, label %18

15:                                               ; preds = %10
  %16 = sub nuw i64 %13, %12
  %17 = getelementptr inbounds nuw i8, ptr %11, i64 %16
  %strlen41 = tail call i64 @strlen(ptr nonnull dereferenceable(1) %0)
  %endptr42 = getelementptr inbounds i8, ptr %0, i64 %strlen41
  store i32 3026478, ptr %endptr42, align 1
  br label %18

18:                                               ; preds = %15, %10
  %.033 = phi ptr [ %17, %15 ], [ %11, %10 ]
  %19 = tail call ptr @strcat(ptr noundef nonnull dereferenceable(1) %0, ptr noundef nonnull dereferenceable(1) %.033) #16
  br label %30

20:                                               ; preds = %3
  %21 = tail call i64 @strcspn(ptr noundef nonnull %1, ptr noundef nonnull @.str.5) #18
  %22 = add i64 %2, -17
  %spec.select = tail call i64 @llvm.umin.i64(i64 %21, i64 %22)
  tail call void @llvm.memcpy.p0.p0.i64(ptr noundef nonnull align 1 dereferenceable(10) %0, ptr noundef nonnull align 1 dereferenceable(10) @.str.6, i64 10, i1 false) #16
  %23 = getelementptr inbounds nuw i8, ptr %1, i64 %spec.select
  %24 = load i8, ptr %23, align 1, !tbaa !7
  %.not = icmp eq i8 %24, 0
  br i1 %.not, label %27, label %25

25:                                               ; preds = %20
  %26 = tail call ptr @strncat(ptr noundef nonnull dereferenceable(1) %0, ptr noundef nonnull %1, i64 noundef %spec.select) #16
  %strlen = tail call i64 @strlen(ptr nonnull dereferenceable(1) %0)
  %endptr = getelementptr inbounds i8, ptr %0, i64 %strlen
  store i32 3026478, ptr %endptr, align 1
  br label %29

27:                                               ; preds = %20
  %28 = tail call ptr @strcat(ptr noundef nonnull dereferenceable(1) %0, ptr noundef nonnull dereferenceable(1) %1) #16
  br label %29

29:                                               ; preds = %27, %25
  %strlen39 = tail call i64 @strlen(ptr nonnull dereferenceable(1) %0)
  %endptr40 = getelementptr inbounds i8, ptr %0, i64 %strlen39
  tail call void @llvm.memcpy.p0.p0.i64(ptr noundef nonnull align 1 dereferenceable(3) %endptr40, ptr noundef nonnull align 1 dereferenceable(3) @.str.7, i64 3, i1 false)
  br label %30

30:                                               ; preds = %18, %29, %5
  ret void
}